(dp0
S'METTS MARK'
p1
(dp2
S'to_messages'
p3
I807
sS'deferral_payments'
p4
S'NaN'
p5
sS'bonus'
p6
I600000
sS'total_stock_value'
p7
I585062
sS'expenses'
p8
I94299
sS'from_poi_to_this_person'
p9
I38
sS'from_this_person_to_poi'
p10
I1
sS'poi'
p11
I00
sS'deferred_income'
p12
g5
sS'restricted_stock'
p13
I585062
sS'long_term_incentive'
p14
g5
sS'salary'
p15
I365788
sS'fraction_from_poi'
p16
F0.04708798017348203
sS'total_payments'
p17
I1061827
sS'loan_advances'
p18
g5
sS'email_address'
p19
S'mark.metts@enron.com'
p20
sS'restricted_stock_deferred'
p21
g5
sS'shared_receipt_with_poi'
p22
I702
sS'fraction_to_poi'
p23
F0.034482758620689655
sS'exercised_stock_options'
p24
g5
sS'from_messages'
p25
I29
sS'other'
p26
I1740
sS'director_fees'
p27
g5
ssS'BAXTER JOHN C'
p28
(dp29
g3
I0
sg4
I1295738
sg6
I1200000
sg7
I10623258
sg8
I11200
sg9
I0
sg10
I0
sg11
I00
sg12
I-1386055
sg13
I3942714
sg14
I1586055
sg15
I267102
sg16
F0.0
sg17
I5634343
sg18
g5
sg19
g5
sg21
g5
sg22
g5
sg23
F0.0
sg24
I6680544
sg25
I0
sg26
I2660303
sg27
g5
ssS'ELLIOTT STEVEN'
p30
(dp31
g3
I0
sg4
g5
sg6
I350000
sg7
I6678735
sg8
I78552
sg9
I0
sg10
I0
sg11
I00
sg12
I-400729
sg13
I1788391
sg14
g5
sg15
I170941
sg16
F0.0
sg17
I211725
sg18
g5
sg19
S'steven.elliott@enron.com'
p32
sg21
g5
sg22
g5
sg23
F0.0
sg24
I4890344
sg25
I0
sg26
I12961
sg27
g5
ssS'CORDES WILLIAM R'
p33
(dp34
g3
I764
sg4
g5
sg6
I0
sg7
I1038185
sg8
g5
sg9
I10
sg10
I0
sg11
I00
sg12
g5
sg13
I386335
sg14
g5
sg15
I365811
sg16
F0.013089005235602094
sg17
I0
sg18
g5
sg19
S'bill.cordes@enron.com'
p35
sg21
g5
sg22
I58
sg23
F0.0
sg24
I651850
sg25
I12
sg26
g5
sg27
g5
ssS'HANNON KEVIN P'
p36
(dp37
g3
I1045
sg4
g5
sg6
I1500000
sg7
I6391065
sg8
I34039
sg9
I32
sg10
I21
sg11
I01
sg12
I-3117011
sg13
I853064
sg14
I1617011
sg15
I243293
sg16
F0.03062200956937799
sg17
I288682
sg18
g5
sg19
S'kevin.hannon@enron.com'
p38
sg21
g5
sg22
I1035
sg23
F0.65625
sg24
I5538001
sg25
I32
sg26
I11350
sg27
g5
ssS'MORDAUNT KRISTINA M'
p39
(dp40
g3
I0
sg4
g5
sg6
I325000
sg7
I208510
sg8
I35018
sg9
I0
sg10
I0
sg11
I00
sg12
g5
sg13
I208510
sg14
g5
sg15
I267093
sg16
F0.0
sg17
I628522
sg18
g5
sg19
S'kristina.mordaunt@enron.com'
p41
sg21
g5
sg22
g5
sg23
F0.0
sg24
g5
sg25
I0
sg26
I1411
sg27
g5
ssS'MEYER ROCKFORD G'
p42
(dp43
g3
I232
sg4
I1848227
sg6
I0
sg7
I955873
sg8
g5
sg9
I0
sg10
I0
sg11
I00
sg12
g5
sg13
I462384
sg14
g5
sg15
I365811
sg16
F0.0
sg17
I1848227
sg18
g5
sg19
S'rockford.meyer@enron.com'
p44
sg21
g5
sg22
I22
sg23
F0.0
sg24
I493489
sg25
I28
sg26
g5
sg27
g5
ssS'MCMAHON JEFFREY'
p45
(dp46
g3
I2355
sg4
g5
sg6
I2600000
sg7
I1662855
sg8
I137108
sg9
I58
sg10
I26
sg11
I00
sg12
g5
sg13
I558801
sg14
I694862
sg15
I370448
sg16
F0.024628450106157114
sg17
I4099771
sg18
g5
sg19
S'jeffrey.mcmahon@enron.com'
p47
sg21
g5
sg22
I2228
sg23
F0.5416666666666666
sg24
I1104054
sg25
I48
sg26
I297353
sg27
g5
ssS'HORTON STANLEY C'
p48
(dp49
g3
I2350
sg4
I3131860
sg6
I0
sg7
I7256648
sg8
g5
sg9
I44
sg10
I15
sg11
I00
sg12
g5
sg13
I2046079
sg14
g5
sg15
I365811
sg16
F0.01872340425531915
sg17
I3131860
sg18
g5
sg19
S'stanley.horton@enron.com'
p50
sg21
g5
sg22
I1074
sg23
F0.013979496738117428
sg24
I5210569
sg25
I1073
sg26
g5
sg27
g5
ssS'PIPER GREGORY F'
p51
(dp52
g3
I1238
sg4
I1130036
sg6
I400000
sg7
I880290
sg8
I43057
sg9
I61
sg10
I48
sg11
I00
sg12
I-33333
sg13
I409554
sg14
g5
sg15
I197091
sg16
F0.049273021001615507
sg17
I1737629
sg18
g5
sg19
S'greg.piper@enron.com'
p53
sg21
I-409554
sg22
I742
sg23
F0.21621621621621623
sg24
I880290
sg25
I222
sg26
I778
sg27
g5
ssS'HUMPHREY GENE E'
p54
(dp55
g3
I128
sg4
I2964506
sg6
I0
sg7
I2282768
sg8
I4994
sg9
I10
sg10
I17
sg11
I00
sg12
g5
sg13
g5
sg14
g5
sg15
I130724
sg16
F0.078125
sg17
I3100224
sg18
g5
sg19
S'gene.humphrey@enron.com'
p56
sg21
g5
sg22
I119
sg23
F1.0
sg24
I2282768
sg25
I17
sg26
g5
sg27
g5
ssS'UMANOFF ADAM S'
p57
(dp58
g3
I111
sg4
g5
sg6
I788750
sg7
I0
sg8
I53122
sg9
I12
sg10
I0
sg11
I00
sg12
g5
sg13
g5
sg14
g5
sg15
I288589
sg16
F0.10810810810810811
sg17
I1130461
sg18
g5
sg19
S'adam.umanoff@enron.com'
p59
sg21
g5
sg22
I41
sg23
F0.0
sg24
g5
sg25
I18
sg26
g5
sg27
g5
ssS'BLACHMAN JEREMY M'
p60
(dp61
g3
I2475
sg4
g5
sg6
I850000
sg7
I954354
sg8
I84208
sg9
I25
sg10
I2
sg11
I00
sg12
g5
sg13
I189041
sg14
I831809
sg15
I248546
sg16
F0.010101010101010102
sg17
I2014835
sg18
g5
sg19
S'jeremy.blachman@enron.com'
p62
sg21
g5
sg22
I2326
sg23
F0.14285714285714285
sg24
I765313
sg25
I14
sg26
I272
sg27
g5
ssS'SUNDE MARTIN'
p63
(dp64
g3
I2647
sg4
g5
sg6
I700000
sg7
I698920
sg8
g5
sg9
I37
sg10
I13
sg11
I00
sg12
g5
sg13
I698920
sg14
I476451
sg15
I257486
sg16
F0.013978088401964487
sg17
I1545059
sg18
g5
sg19
S'marty.sunde@enron.com'
p65
sg21
g5
sg22
I2565
sg23
F0.34210526315789475
sg24
g5
sg25
I38
sg26
I111122
sg27
g5
ssS'GIBBS DANA R'
p66
(dp67
g3
I169
sg4
I504610
sg6
I0
sg7
I2218275
sg8
g5
sg9
I0
sg10
I0
sg11
I00
sg12
g5
sg13
g5
sg14
I461912
sg15
I365811
sg16
F0.0
sg17
I966522
sg18
g5
sg19
S'dana.gibbs@enron.com'
p68
sg21
g5
sg22
I23
sg23
F0.0
sg24
I2218275
sg25
I12
sg26
g5
sg27
g5
ssS'LOWRY CHARLES P'
p69
(dp70
g3
I0
sg4
g5
sg6
I0
sg7
I372205
sg8
g5
sg9
I0
sg10
I0
sg11
I00
sg12
g5
sg13
I153686
sg14
g5
sg15
I365811
sg16
F0.0
sg17
I0
sg18
g5
sg19
g5
sg21
I-153686
sg22
g5
sg23
F0.0
sg24
I372205
sg25
I0
sg26
g5
sg27
g5
ssS'COLWELL WESLEY'
p71
(dp72
g3
I1758
sg4
I27610
sg6
I1200000
sg7
I698242
sg8
I16514
sg9
I240
sg10
I11
sg11
I01
sg12
I-144062
sg13
I698242
sg14
g5
sg15
I288542
sg16
F0.13651877133105803
sg17
I1490344
sg18
g5
sg19
S'wes.colwell@enron.com'
p73
sg21
g5
sg22
I1132
sg23
F0.275
sg24
g5
sg25
I40
sg26
I101740
sg27
g5
ssS'MULLER MARK S'
p74
(dp75
g3
I136
sg4
I842924
sg6
I1100000
sg7
I1416848
sg8
g5
sg9
I12
sg10
I0
sg11
I00
sg12
I-719000
sg13
I360528
sg14
I1725545
sg15
I251654
sg16
F0.08823529411764706
sg17
I3202070
sg18
g5
sg19
S's..muller@enron.com'
p76
sg21
g5
sg22
I114
sg23
F0.0
sg24
I1056320
sg25
I16
sg26
I947
sg27
g5
ssS'JACKSON CHARLENE R'
p77
(dp78
g3
I258
sg4
g5
sg6
I250000
sg7
I725735
sg8
I10181
sg9
I25
sg10
I19
sg11
I00
sg12
g5
sg13
I540672
sg14
g5
sg15
I288558
sg16
F0.09689922480620156
sg17
I551174
sg18
g5
sg19
S'charlene.jackson@enron.com'
p79
sg21
g5
sg22
I117
sg23
F0.3392857142857143
sg24
I185063
sg25
I56
sg26
I2435
sg27
g5
ssS'WESTFAHL RICHARD K'
p80
(dp81
g3
I0
sg4
g5
sg6
I0
sg7
I384930
sg8
I51870
sg9
I0
sg10
I0
sg11
I00
sg12
I-10800
sg13
I384930
sg14
I256191
sg15
I63744
sg16
F0.0
sg17
I762135
sg18
g5
sg19
S'dick.westfahl@enron.com'
p82
sg21
g5
sg22
g5
sg23
F0.0
sg24
g5
sg25
I0
sg26
I401130
sg27
g5
ssS'WALTERS GARETH W'
p83
(dp84
g3
I0
sg4
I53625
sg6
I0
sg7
I1030329
sg8
I33785
sg9
I0
sg10
I0
sg11
I00
sg12
g5
sg13
g5
sg14
g5
sg15
I365811
sg16
F0.0
sg17
I87410
sg18
g5
sg19
g5
sg21
g5
sg22
g5
sg23
F0.0
sg24
I1030329
sg25
I0
sg26
g5
sg27
g5
ssS'WALLS JR ROBERT H'
p85
(dp86
g3
I671
sg4
g5
sg6
I850000
sg7
I5898997
sg8
I50936
sg9
I17
sg10
I0
sg11
I00
sg12
g5
sg13
I1552453
sg14
I540751
sg15
I357091
sg16
F0.02533532041728763
sg17
I1798780
sg18
g5
sg19
S'rob.walls@enron.com'
p87
sg21
g5
sg22
I215
sg23
F0.0
sg24
I4346544
sg25
I146
sg26
I2
sg27
g5
ssS'KITCHEN LOUISE'
p88
(dp89
g3
I8305
sg4
g5
sg6
I3100000
sg7
I547143
sg8
I5774
sg9
I251
sg10
I194
sg11
I00
sg12
g5
sg13
I466101
sg14
g5
sg15
I271442
sg16
F0.030222757375075255
sg17
I3471141
sg18
g5
sg19
S'louise.kitchen@enron.com'
p90
sg21
g5
sg22
I3669
sg23
F0.11226851851851852
sg24
I81042
sg25
I1728
sg26
I93925
sg27
g5
ssS'CHAN RONNIE'
p91
(dp92
g3
I0
sg4
g5
sg6
I0
sg7
I0
sg8
g5
sg9
I0
sg10
I0
sg11
I00
sg12
I-98784
sg13
I32460
sg14
g5
sg15
I365811
sg16
F0.0
sg17
I0
sg18
g5
sg19
g5
sg21
I-32460
sg22
g5
sg23
F0.0
sg24
g5
sg25
I0
sg26
g5
sg27
I98784
ssS'BELFER ROBERT'
p93
(dp94
g3
I0
sg4
I-102500
sg6
I0
sg7
I-44093
sg8
g5
sg9
I0
sg10
I0
sg11
I00
sg12
g5
sg13
g5
sg14
g5
sg15
I365811
sg16
F0.0
sg17
I102500
sg18
g5
sg19
g5
sg21
I44093
sg22
g5
sg23
F0.0
sg24
I3285
sg25
I0
sg26
g5
sg27
I3285
ssS'SHANKMAN JEFFREY A'
p95
(dp96
g3
I3221
sg4
g5
sg6
I2000000
sg7
I2072035
sg8
I178979
sg9
I94
sg10
I83
sg11
I00
sg12
g5
sg13
I630137
sg14
I554422
sg15
I304110
sg16
F0.029183483390251473
sg17
I3038702
sg18
g5
sg19
S'jeffrey.shankman@enron.com'
p97
sg21
g5
sg22
I1730
sg23
F0.030958597538232
sg24
I1441898
sg25
I2681
sg26
I1191
sg27
g5
ssS'WODRASKA JOHN'
p98
(dp99
g3
I0
sg4
g5
sg6
I0
sg7
I0
sg8
g5
sg9
I0
sg10
I0
sg11
I00
sg12
g5
sg13
g5
sg14
g5
sg15
I365811
sg16
F0.0
sg17
I189583
sg18
g5
sg19
S'john.wodraska@enron.com'
p100
sg21
g5
sg22
g5
sg23
F0.0
sg24
g5
sg25
I0
sg26
I189583
sg27
g5
ssS'BERGSIEKER RICHARD P'
p101
(dp102
g3
I383
sg4
g5
sg6
I250000
sg7
I659249
sg8
I59175
sg9
I4
sg10
I0
sg11
I00
sg12
I-485813
sg13
I659249
sg14
I180250
sg15
I187922
sg16
F0.010443864229765013
sg17
I618850
sg18
g5
sg19
S'rick.bergsieker@enron.com'
p103
sg21
g5
sg22
I233
sg23
F0.0
sg24
g5
sg25
I59
sg26
I427316
sg27
g5
ssS'URQUHART JOHN A'
p104
(dp105
g3
I0
sg4
g5
sg6
I0
sg7
I0
sg8
I228656
sg9
I0
sg10
I0
sg11
I00
sg12
I-36666
sg13
g5
sg14
g5
sg15
I365811
sg16
F0.0
sg17
I228656
sg18
g5
sg19
g5
sg21
g5
sg22
g5
sg23
F0.0
sg24
g5
sg25
I0
sg26
g5
sg27
I36666
ssS'BIBI PHILIPPE A'
p106
(dp107
g3
I1607
sg4
g5
sg6
I1000000
sg7
I1843816
sg8
I38559
sg9
I23
sg10
I8
sg11
I00
sg12
g5
sg13
I378082
sg14
I369721
sg15
I213625
sg16
F0.01431238332296204
sg17
I2047593
sg18
g5
sg19
S'philippe.bibi@enron.com'
p108
sg21
g5
sg22
I1336
sg23
F0.2
sg24
I1465734
sg25
I40
sg26
I425688
sg27
g5
ssS'RIEKER PAULA H'
p109
(dp110
g3
I1328
sg4
I214678
sg6
I700000
sg7
I1918887
sg8
I33271
sg9
I35
sg10
I48
sg11
I01
sg12
I-100000
sg13
I283649
sg14
g5
sg15
I249201
sg16
F0.02635542168674699
sg17
I1099100
sg18
g5
sg19
S'paula.rieker@enron.com'
p111
sg21
g5
sg22
I1258
sg23
F0.5853658536585366
sg24
I1635238
sg25
I82
sg26
I1950
sg27
g5
ssS'WHALEY DAVID A'
p112
(dp113
g3
I0
sg4
g5
sg6
I0
sg7
I98718
sg8
g5
sg9
I0
sg10
I0
sg11
I00
sg12
g5
sg13
g5
sg14
g5
sg15
I365811
sg16
F0.0
sg17
I0
sg18
g5
sg19
g5
sg21
g5
sg22
g5
sg23
F0.0
sg24
I98718
sg25
I0
sg26
g5
sg27
g5
ssS'BECK SALLY W'
p114
(dp115
g3
I7315
sg4
g5
sg6
I700000
sg7
I126027
sg8
I37172
sg9
I144
sg10
I386
sg11
I00
sg12
g5
sg13
I126027
sg14
g5
sg15
I231330
sg16
F0.01968557758031442
sg17
I969068
sg18
g5
sg19
S'sally.beck@enron.com'
p116
sg21
g5
sg22
I2639
sg23
F0.08887865530739121
sg24
g5
sg25
I4343
sg26
I566
sg27
g5
ssS'HAUG DAVID L'
p117
(dp118
g3
I573
sg4
g5
sg6
I0
sg7
I2217299
sg8
I475
sg9
I4
sg10
I7
sg11
I00
sg12
g5
sg13
I2217299
sg14
g5
sg15
I365811
sg16
F0.006980802792321117
sg17
I475
sg18
g5
sg19
S'david.haug@enron.com'
p119
sg21
g5
sg22
I471
sg23
F0.3684210526315789
sg24
g5
sg25
I19
sg26
g5
sg27
g5
ssS'ECHOLS JOHN B'
p120
(dp121
g3
I0
sg4
g5
sg6
I200000
sg7
I1008941
sg8
I21530
sg9
I0
sg10
I0
sg11
I00
sg12
g5
sg13
I407503
sg14
I2234774
sg15
I182245
sg16
F0.0
sg17
I2692324
sg18
g5
sg19
S'john.echols@enron.com'
p122
sg21
g5
sg22
g5
sg23
F0.0
sg24
I601438
sg25
I0
sg26
I53775
sg27
g5
ssS'MENDELSOHN JOHN'
p123
(dp124
g3
I0
sg4
g5
sg6
I0
sg7
I0
sg8
I148
sg9
I0
sg10
I0
sg11
I00
sg12
I-103750
sg13
g5
sg14
g5
sg15
I365811
sg16
F0.0
sg17
I148
sg18
g5
sg19
g5
sg21
g5
sg22
g5
sg23
F0.0
sg24
g5
sg25
I0
sg26
g5
sg27
I103750
ssS'HICKERSON GARY J'
p125
(dp126
g3
I1320
sg4
g5
sg6
I1700000
sg7
I441096
sg8
I98849
sg9
I40
sg10
I1
sg11
I00
sg12
g5
sg13
I441096
sg14
I69223
sg15
I211788
sg16
F0.030303030303030304
sg17
I2081796
sg18
g5
sg19
S'gary.hickerson@enron.com'
p127
sg21
g5
sg22
I900
sg23
F0.037037037037037035
sg24
g5
sg25
I27
sg26
I1936
sg27
g5
ssS'CLINE KENNETH W'
p128
(dp129
g3
I0
sg4
g5
sg6
I0
sg7
I189518
sg8
g5
sg9
I0
sg10
I0
sg11
I00
sg12
g5
sg13
I662086
sg14
g5
sg15
I365811
sg16
F0.0
sg17
I0
sg18
g5
sg19
g5
sg21
I-472568
sg22
g5
sg23
F0.0
sg24
g5
sg25
I0
sg26
g5
sg27
g5
ssS'LEWIS RICHARD'
p130
(dp131
g3
I952
sg4
g5
sg6
I0
sg7
I850477
sg8
g5
sg9
I10
sg10
I0
sg11
I00
sg12
g5
sg13
g5
sg14
g5
sg15
I365811
sg16
F0.01050420168067227
sg17
I0
sg18
g5
sg19
S'richard.lewis@enron.com'
p132
sg21
g5
sg22
I739
sg23
F0.0
sg24
I850477
sg25
I26
sg26
g5
sg27
g5
ssS'HAYES ROBERT E'
p133
(dp134
g3
I504
sg4
I7961
sg6
I0
sg7
I151418
sg8
g5
sg9
I16
sg10
I0
sg11
I00
sg12
g5
sg13
I151418
sg14
g5
sg15
I365811
sg16
F0.031746031746031744
sg17
I7961
sg18
g5
sg19
S'robert.hayes@enron.com'
p135
sg21
g5
sg22
I50
sg23
F0.0
sg24
g5
sg25
I12
sg26
g5
sg27
g5
ssS'MCCARTY DANNY J'
p136
(dp137
g3
I1433
sg4
g5
sg6
I0
sg7
I758931
sg8
g5
sg9
I25
sg10
I2
sg11
I00
sg12
g5
sg13
I94556
sg14
g5
sg15
I365811
sg16
F0.017445917655268667
sg17
I0
sg18
g5
sg19
S'danny.mccarty@enron.com'
p138
sg21
g5
sg22
I508
sg23
F0.009302325581395349
sg24
I664375
sg25
I215
sg26
g5
sg27
g5
ssS'KOPPER MICHAEL J'
p139
(dp140
g3
I0
sg4
g5
sg6
I800000
sg7
I985032
sg8
I118134
sg9
I0
sg10
I0
sg11
I01
sg12
g5
sg13
I985032
sg14
I602671
sg15
I224305
sg16
F0.0
sg17
I2652612
sg18
g5
sg19
S'michael.kopper@enron.com'
p141
sg21
g5
sg22
g5
sg23
F0.0
sg24
g5
sg25
I0
sg26
I907502
sg27
g5
ssS'LEFF DANIEL P'
p142
(dp143
g3
I2822
sg4
g5
sg6
I1000000
sg7
I360528
sg8
g5
sg9
I67
sg10
I14
sg11
I00
sg12
g5
sg13
I360528
sg14
I1387399
sg15
I273746
sg16
F0.02374202693125443
sg17
I2664228
sg18
g5
sg19
S'dan.leff@enron.com'
p144
sg21
g5
sg22
I2672
sg23
F0.2222222222222222
sg24
g5
sg25
I63
sg26
I3083
sg27
g5
ssS'LAVORATO JOHN J'
p145
(dp146
g3
I7259
sg4
g5
sg6
I8000000
sg7
I5167144
sg8
I49537
sg9
I528
sg10
I411
sg11
I00
sg12
g5
sg13
I1008149
sg14
I2035380
sg15
I339288
sg16
F0.07273729163796666
sg17
I10425757
sg18
g5
sg19
S'john.lavorato@enron.com'
p147
sg21
g5
sg22
I3962
sg23
F0.15899419729206962
sg24
I4158995
sg25
I2585
sg26
I1552
sg27
g5
ssS'BERBERIAN DAVID'
p148
(dp149
g3
I0
sg4
g5
sg6
I0
sg7
I2493616
sg8
I11892
sg9
I0
sg10
I0
sg11
I00
sg12
g5
sg13
I869220
sg14
g5
sg15
I216582
sg16
F0.0
sg17
I228474
sg18
g5
sg19
S'david.berberian@enron.com'
p150
sg21
g5
sg22
g5
sg23
F0.0
sg24
I1624396
sg25
I0
sg26
g5
sg27
g5
ssS'DETMERING TIMOTHY J'
p151
(dp152
g3
I0
sg4
I875307
sg6
I425000
sg7
I2027865
sg8
I52255
sg9
I0
sg10
I0
sg11
I00
sg12
I-775241
sg13
I315068
sg14
I415657
sg15
I210500
sg16
F0.0
sg17
I1204583
sg18
g5
sg19
S'timothy.detmering@enron.com'
p153
sg21
I-315068
sg22
g5
sg23
F0.0
sg24
I2027865
sg25
I0
sg26
I1105
sg27
g5
ssS'WAKEHAM JOHN'
p154
(dp155
g3
I0
sg4
g5
sg6
I0
sg7
I0
sg8
I103773
sg9
I0
sg10
I0
sg11
I00
sg12
g5
sg13
g5
sg14
g5
sg15
I365811
sg16
F0.0
sg17
I213071
sg18
g5
sg19
g5
sg21
g5
sg22
g5
sg23
F0.0
sg24
g5
sg25
I0
sg26
g5
sg27
I109298
ssS'POWERS WILLIAM'
p156
(dp157
g3
I653
sg4
g5
sg6
I0
sg7
I0
sg8
g5
sg9
I0
sg10
I0
sg11
I00
sg12
I-17500
sg13
g5
sg14
g5
sg15
I365811
sg16
F0.0
sg17
I0
sg18
g5
sg19
S'ken.powers@enron.com'
p158
sg21
g5
sg22
I12
sg23
F0.0
sg24
g5
sg25
I26
sg26
g5
sg27
I17500
ssS'GOLD JOSEPH'
p159
(dp160
g3
I0
sg4
g5
sg6
I750000
sg7
I877611
sg8
g5
sg9
I0
sg10
I0
sg11
I00
sg12
g5
sg13
I441096
sg14
I304805
sg15
I272880
sg16
F0.0
sg17
I2146973
sg18
g5
sg19
S'joe.gold@enron.com'
p161
sg21
g5
sg22
g5
sg23
F0.0
sg24
I436515
sg25
I0
sg26
I819288
sg27
g5
ssS'BANNANTINE JAMES M'
p162
(dp163
g3
I566
sg4
g5
sg6
I0
sg7
I5243487
sg8
I56301
sg9
I39
sg10
I0
sg11
I00
sg12
I-5104
sg13
I1757552
sg14
g5
sg15
I477
sg16
F0.06890459363957598
sg17
I916197
sg18
g5
sg19
S'james.bannantine@enron.com'
p164
sg21
I-560222
sg22
I465
sg23
F0.0
sg24
I4046157
sg25
I29
sg26
I864523
sg27
g5
ssS'DUNCAN JOHN H'
p165
(dp166
g3
I0
sg4
g5
sg6
I0
sg7
I371750
sg8
g5
sg9
I0
sg10
I0
sg11
I00
sg12
I-25000
sg13
g5
sg14
g5
sg15
I365811
sg16
F0.0
sg17
I77492
sg18
g5
sg19
g5
sg21
g5
sg22
g5
sg23
F0.0
sg24
I371750
sg25
I0
sg26
g5
sg27
I102492
ssS'SHAPIRO RICHARD S'
p167
(dp168
g3
I15149
sg4
g5
sg6
I650000
sg7
I987001
sg8
I137767
sg9
I74
sg10
I65
sg11
I00
sg12
g5
sg13
I379164
sg14
g5
sg15
I269076
sg16
F0.0048848108786058485
sg17
I1057548
sg18
g5
sg19
S'richard.shapiro@enron.com'
p169
sg21
g5
sg22
I4527
sg23
F0.053497942386831275
sg24
I607837
sg25
I1215
sg26
I705
sg27
g5
ssS'SHERRIFF JOHN R'
p170
(dp171
g3
I3187
sg4
g5
sg6
I1500000
sg7
I3128982
sg8
g5
sg9
I28
sg10
I23
sg11
I00
sg12
g5
sg13
I1293424
sg14
I554422
sg15
I428780
sg16
F0.008785691873235017
sg17
I4335388
sg18
g5
sg19
S'john.sherriff@enron.com'
p172
sg21
g5
sg22
I2103
sg23
F0.25
sg24
I1835558
sg25
I92
sg26
I1852186
sg27
g5
ssS'SHELBY REX'
p173
(dp174
g3
I225
sg4
g5
sg6
I200000
sg7
I2493616
sg8
I22884
sg9
I13
sg10
I14
sg11
I01
sg12
I-4167
sg13
I869220
sg14
g5
sg15
I211844
sg16
F0.057777777777777775
sg17
I2003885
sg18
g5
sg19
S'rex.shelby@enron.com'
p175
sg21
g5
sg22
I91
sg23
F0.358974358974359
sg24
I1624396
sg25
I39
sg26
I1573324
sg27
g5
ssS'LEMAISTRE CHARLES'
p176
(dp177
g3
I0
sg4
g5
sg6
I0
sg7
I412878
sg8
g5
sg9
I0
sg10
I0
sg11
I00
sg12
I-25000
sg13
g5
sg14
g5
sg15
I365811
sg16
F0.0
sg17
I87492
sg18
g5
sg19
g5
sg21
g5
sg22
g5
sg23
F0.0
sg24
I412878
sg25
I0
sg26
g5
sg27
I112492
ssS'DEFFNER JOSEPH M'
p178
(dp179
g3
I714
sg4
g5
sg6
I600000
sg7
I159211
sg8
I41626
sg9
I115
sg10
I4
sg11
I00
sg12
g5
sg13
I141833
sg14
I335349
sg15
I206121
sg16
F0.16106442577030813
sg17
I1208649
sg18
g5
sg19
S'joseph.deffner@enron.com'
p180
sg21
g5
sg22
I552
sg23
F0.05405405405405406
sg24
I17378
sg25
I74
sg26
I25553
sg27
g5
ssS'KISHKILL JOSEPH G'
p181
(dp182
g3
I0
sg4
g5
sg6
I0
sg7
I1034346
sg8
I116335
sg9
I0
sg10
I0
sg11
I00
sg12
I-51042
sg13
I1034346
sg14
g5
sg15
I174246
sg16
F0.0
sg17
I704896
sg18
g5
sg19
S'joe.kishkill@enron.com'
p183
sg21
g5
sg22
g5
sg23
F0.0
sg24
g5
sg25
I0
sg26
I465357
sg27
g5
ssS'WHALLEY LAWRENCE G'
p184
(dp185
g3
I6019
sg4
g5
sg6
I3000000
sg7
I6079137
sg8
I57838
sg9
I186
sg10
I24
sg11
I00
sg12
g5
sg13
I2796177
sg14
I808346
sg15
I510364
sg16
F0.03090214321315833
sg17
I4677574
sg18
g5
sg19
S'greg.whalley@enron.com'
p186
sg21
g5
sg22
I3920
sg23
F0.04316546762589928
sg24
I3282960
sg25
I556
sg26
I301026
sg27
g5
ssS'MCCONNELL MICHAEL S'
p187
(dp188
g3
I3329
sg4
g5
sg6
I1100000
sg7
I3101279
sg8
I81364
sg9
I92
sg10
I194
sg11
I00
sg12
g5
sg13
I1478269
sg14
I554422
sg15
I365038
sg16
F0.02763592670471613
sg17
I2101364
sg18
g5
sg19
S'mike.mcconnell@enron.com'
p189
sg21
g5
sg22
I2189
sg23
F0.07075127644055434
sg24
I1623010
sg25
I2742
sg26
I540
sg27
g5
ssS'PIRO JIM'
p190
(dp191
g3
I58
sg4
g5
sg6
I0
sg7
I47304
sg8
g5
sg9
I0
sg10
I1
sg11
I00
sg12
g5
sg13
I47304
sg14
g5
sg15
I365811
sg16
F0.0
sg17
I0
sg18
g5
sg19
S'jim.piro@enron.com'
p192
sg21
g5
sg22
I3
sg23
F0.0625
sg24
g5
sg25
I16
sg26
g5
sg27
g5
ssS'DELAINEY DAVID W'
p193
(dp194
g3
I3093
sg4
g5
sg6
I3000000
sg7
I3614261
sg8
I86174
sg9
I66
sg10
I609
sg11
I01
sg12
g5
sg13
I1323148
sg14
I1294981
sg15
I365163
sg16
F0.02133850630455868
sg17
I4747979
sg18
g5
sg19
S'david.delainey@enron.com'
p195
sg21
g5
sg22
I2097
sg23
F0.198435972629521
sg24
I2291113
sg25
I3069
sg26
I1661
sg27
g5
ssS'SULLIVAN-SHAKLOVITZ COLLEEN'
p196
(dp197
g3
I0
sg4
I181993
sg6
I100000
sg7
I1362375
sg8
g5
sg9
I0
sg10
I0
sg11
I00
sg12
g5
sg13
g5
sg14
I554422
sg15
I162779
sg16
F0.0
sg17
I999356
sg18
g5
sg19
g5
sg21
g5
sg22
g5
sg23
F0.0
sg24
I1362375
sg25
I0
sg26
I162
sg27
g5
ssS'WROBEL BRUCE'
p198
(dp199
g3
I0
sg4
g5
sg6
I0
sg7
I139130
sg8
g5
sg9
I0
sg10
I0
sg11
I00
sg12
g5
sg13
g5
sg14
g5
sg15
I365811
sg16
F0.0
sg17
I0
sg18
g5
sg19
g5
sg21
g5
sg22
g5
sg23
F0.0
sg24
I139130
sg25
I0
sg26
g5
sg27
g5
ssS'LINDHOLM TOD A'
p200
(dp201
g3
I0
sg4
I204075
sg6
I200000
sg7
I3064208
sg8
I57727
sg9
I0
sg10
I0
sg11
I00
sg12
g5
sg13
I514847
sg14
I175000
sg15
I236457
sg16
F0.0
sg17
I875889
sg18
g5
sg19
S'tod.lindholm@enron.com'
p202
sg21
g5
sg22
g5
sg23
F0.0
sg24
I2549361
sg25
I0
sg26
I2630
sg27
g5
ssS'MEYER JEROME J'
p203
(dp204
g3
I0
sg4
g5
sg6
I0
sg7
I0
sg8
I2151
sg9
I0
sg10
I0
sg11
I00
sg12
I-38346
sg13
g5
sg14
g5
sg15
I365811
sg16
F0.0
sg17
I2151
sg18
g5
sg19
g5
sg21
g5
sg22
g5
sg23
F0.0
sg24
g5
sg25
I0
sg26
g5
sg27
I38346
ssS'LAY KENNETH L'
p205
(dp206
g3
I4273
sg4
I202911
sg6
I7000000
sg7
I49110078
sg8
I99832
sg9
I123
sg10
I16
sg11
I01
sg12
I-300000
sg13
I14761694
sg14
I3600000
sg15
I1072321
sg16
F0.028785396676807865
sg17
I103559793
sg18
I81525000
sg19
S'kenneth.lay@enron.com'
p207
sg21
g5
sg22
I2411
sg23
F0.4444444444444444
sg24
I34348384
sg25
I36
sg26
I10359729
sg27
g5
ssS'BUTTS ROBERT H'
p208
(dp209
g3
I0
sg4
g5
sg6
I750000
sg7
I417619
sg8
I9410
sg9
I0
sg10
I0
sg11
I00
sg12
I-75000
sg13
I417619
sg14
I175000
sg15
I261516
sg16
F0.0
sg17
I1271582
sg18
g5
sg19
S'bob.butts@enron.com'
p210
sg21
g5
sg22
g5
sg23
F0.0
sg24
g5
sg25
I0
sg26
I150656
sg27
g5
ssS'OLSON CINDY K'
p211
(dp212
g3
I1184
sg4
I77716
sg6
I750000
sg7
I2606763
sg8
I63791
sg9
I20
sg10
I15
sg11
I00
sg12
g5
sg13
I969729
sg14
I100000
sg15
I329078
sg16
F0.016891891891891893
sg17
I1321557
sg18
g5
sg19
S'cindy.olson@enron.com'
p213
sg21
g5
sg22
I856
sg23
F0.28846153846153844
sg24
I1637034
sg25
I52
sg26
I972
sg27
g5
ssS'MCDONALD REBECCA'
p214
(dp215
g3
I894
sg4
g5
sg6
I0
sg7
I1691366
sg8
g5
sg9
I54
sg10
I1
sg11
I00
sg12
g5
sg13
I934065
sg14
g5
sg15
I365811
sg16
F0.06040268456375839
sg17
I0
sg18
g5
sg19
S'rebecca.mcdonald@enron.com'
p216
sg21
g5
sg22
I720
sg23
F0.07692307692307693
sg24
I757301
sg25
I13
sg26
g5
sg27
g5
ssS'CUMBERLAND MICHAEL S'
p217
(dp218
g3
I0
sg4
g5
sg6
I325000
sg7
I207940
sg8
I22344
sg9
I0
sg10
I0
sg11
I00
sg12
g5
sg13
I207940
sg14
I275000
sg15
I184899
sg16
F0.0
sg17
I807956
sg18
g5
sg19
g5
sg21
g5
sg22
g5
sg23
F0.0
sg24
g5
sg25
I0
sg26
I713
sg27
g5
ssS'GAHN ROBERT S'
p219
(dp220
g3
I0
sg4
I73122
sg6
I509870
sg7
I318607
sg8
I50080
sg9
I0
sg10
I0
sg11
I00
sg12
I-1042
sg13
I235370
sg14
g5
sg15
I192008
sg16
F0.0
sg17
I900585
sg18
g5
sg19
g5
sg21
g5
sg22
g5
sg23
F0.0
sg24
I83237
sg25
I0
sg26
I76547
sg27
g5
ssS'MCCLELLAN GEORGE'
p221
(dp222
g3
I1744
sg4
g5
sg6
I900000
sg7
I947861
sg8
I228763
sg9
I52
sg10
I0
sg11
I00
sg12
I-125000
sg13
I441096
sg14
g5
sg15
I263413
sg16
F0.02981651376146789
sg17
I1318763
sg18
g5
sg19
S'george.mcclellan@enron.com'
p223
sg21
g5
sg22
I1469
sg23
F0.0
sg24
I506765
sg25
I49
sg26
I51587
sg27
g5
ssS'HERMANN ROBERT J'
p224
(dp225
g3
I0
sg4
g5
sg6
I700000
sg7
I668132
sg8
I48357
sg9
I0
sg10
I0
sg11
I00
sg12
I-280000
sg13
I480632
sg14
I150000
sg15
I262663
sg16
F0.0
sg17
I1297461
sg18
g5
sg19
S'robert.hermann@enron.com'
p226
sg21
g5
sg22
g5
sg23
F0.0
sg24
I187500
sg25
I0
sg26
I416441
sg27
g5
ssS'SCRIMSHAW MATTHEW'
p227
(dp228
g3
I0
sg4
g5
sg6
I0
sg7
I759557
sg8
g5
sg9
I0
sg10
I0
sg11
I00
sg12
g5
sg13
g5
sg14
g5
sg15
I365811
sg16
F0.0
sg17
I0
sg18
g5
sg19
S'matthew.scrimshaw@enron.com'
p229
sg21
g5
sg22
g5
sg23
F0.0
sg24
I759557
sg25
I0
sg26
g5
sg27
g5
ssS'GATHMANN WILLIAM D'
p230
(dp231
g3
I0
sg4
g5
sg6
I0
sg7
I1945360
sg8
g5
sg9
I0
sg10
I0
sg11
I00
sg12
g5
sg13
I264013
sg14
g5
sg15
I365811
sg16
F0.0
sg17
I0
sg18
g5
sg19
g5
sg21
I-72419
sg22
g5
sg23
F0.0
sg24
I1753766
sg25
I0
sg26
g5
sg27
g5
ssS'HAEDICKE MARK E'
p232
(dp233
g3
I4009
sg4
I2157527
sg6
I1150000
sg7
I803094
sg8
I76169
sg9
I180
sg10
I61
sg11
I00
sg12
I-934484
sg13
I524169
sg14
I983346
sg15
I374125
sg16
F0.04489897730107259
sg17
I3859065
sg18
g5
sg19
S'mark.haedicke@enron.com'
p234
sg21
I-329825
sg22
I1847
sg23
F0.03142709943328181
sg24
I608750
sg25
I1941
sg26
I52382
sg27
g5
ssS'BOWEN JR RAYMOND M'
p235
(dp236
g3
I1858
sg4
g5
sg6
I1350000
sg7
I252055
sg8
I65907
sg9
I140
sg10
I15
sg11
I01
sg12
I-833
sg13
I252055
sg14
I974293
sg15
I278601
sg16
F0.07534983853606028
sg17
I2669589
sg18
g5
sg19
S'raymond.bowen@enron.com'
p237
sg21
g5
sg22
I1593
sg23
F0.5555555555555556
sg24
g5
sg25
I27
sg26
I1621
sg27
g5
ssS'GILLIS JOHN'
p238
(dp239
g3
I0
sg4
g5
sg6
I0
sg7
I85641
sg8
g5
sg9
I0
sg10
I0
sg11
I00
sg12
g5
sg13
I75838
sg14
g5
sg15
I365811
sg16
F0.0
sg17
I0
sg18
g5
sg19
g5
sg21
g5
sg22
g5
sg23
F0.0
sg24
I9803
sg25
I0
sg26
g5
sg27
g5
ssS'FITZGERALD JAY L'
p240
(dp241
g3
I936
sg4
g5
sg6
I350000
sg7
I1621236
sg8
I23870
sg9
I1
sg10
I8
sg11
I00
sg12
g5
sg13
I956775
sg14
I556416
sg15
I199157
sg16
F0.0010683760683760685
sg17
I1414857
sg18
g5
sg19
S'jay.fitzgerald@enron.com'
p242
sg21
g5
sg22
I723
sg23
F0.5
sg24
I664461
sg25
I16
sg26
I285414
sg27
g5
ssS'MORAN MICHAEL P'
p243
(dp244
g3
I672
sg4
g5
sg6
I0
sg7
I221141
sg8
g5
sg9
I0
sg10
I0
sg11
I00
sg12
g5
sg13
I161602
sg14
g5
sg15
I365811
sg16
F0.0
sg17
I0
sg18
g5
sg19
S'michael.moran@enron.com'
p245
sg21
g5
sg22
I127
sg23
F0.0
sg24
I59539
sg25
I19
sg26
g5
sg27
g5
ssS'REDMOND BRIAN L'
p246
(dp247
g3
I1671
sg4
g5
sg6
I0
sg7
I7890324
sg8
I14689
sg9
I204
sg10
I49
sg11
I00
sg12
g5
sg13
I381285
sg14
g5
sg15
I96840
sg16
F0.12208258527827648
sg17
I111529
sg18
g5
sg19
S'brian.redmond@enron.com'
p248
sg21
g5
sg22
I1063
sg23
F0.22171945701357465
sg24
I7509039
sg25
I221
sg26
g5
sg27
g5
ssS'BAZELIDES PHILIP J'
p249
(dp250
g3
I0
sg4
I684694
sg6
I0
sg7
I1599641
sg8
g5
sg9
I0
sg10
I0
sg11
I00
sg12
g5
sg13
g5
sg14
I93750
sg15
I80818
sg16
F0.0
sg17
I860136
sg18
g5
sg19
g5
sg21
g5
sg22
g5
sg23
F0.0
sg24
I1599641
sg25
I0
sg26
I874
sg27
g5
ssS'BELDEN TIMOTHY N'
p251
(dp252
g3
I7991
sg4
I2144013
sg6
I5249999
sg7
I1110705
sg8
I17355
sg9
I228
sg10
I108
sg11
I01
sg12
I-2334434
sg13
I157569
sg14
g5
sg15
I213999
sg16
F0.028532098610937303
sg17
I5501630
sg18
g5
sg19
S'tim.belden@enron.com'
p253
sg21
g5
sg22
I5521
sg23
F0.2231404958677686
sg24
I953136
sg25
I484
sg26
I210698
sg27
g5
ssS'DURAN WILLIAM D'
p254
(dp255
g3
I904
sg4
g5
sg6
I750000
sg7
I1640910
sg8
I25785
sg9
I106
sg10
I3
sg11
I00
sg12
g5
sg13
I189041
sg14
I1105218
sg15
I210692
sg16
F0.1172566371681416
sg17
I2093263
sg18
g5
sg19
S'w.duran@enron.com'
p256
sg21
g5
sg22
I599
sg23
F0.25
sg24
I1451869
sg25
I12
sg26
I1568
sg27
g5
ssS'THORN TERENCE H'
p257
(dp258
g3
I266
sg4
I16586
sg6
I0
sg7
I4817796
sg8
I46145
sg9
I0
sg10
I0
sg11
I00
sg12
g5
sg13
I365320
sg14
I200000
sg15
I222093
sg16
F0.0
sg17
I911453
sg18
g5
sg19
S'terence.thorn@enron.com'
p259
sg21
g5
sg22
I73
sg23
F0.0
sg24
I4452476
sg25
I41
sg26
I426629
sg27
g5
ssS'FASTOW ANDREW S'
p260
(dp261
g3
I0
sg4
g5
sg6
I1300000
sg7
I1794412
sg8
I55921
sg9
I0
sg10
I0
sg11
I01
sg12
I-1386055
sg13
I1794412
sg14
I1736055
sg15
I440698
sg16
F0.0
sg17
I2424083
sg18
g5
sg19
S'andrew.fastow@enron.com'
p262
sg21
g5
sg22
g5
sg23
F0.0
sg24
g5
sg25
I0
sg26
I277464
sg27
g5
ssS'FOY JOE'
p263
(dp264
g3
I57
sg4
I181755
sg6
I0
sg7
I343434
sg8
g5
sg9
I0
sg10
I0
sg11
I00
sg12
g5
sg13
g5
sg14
g5
sg15
I365811
sg16
F0.0
sg17
I181755
sg18
g5
sg19
S'tracy.foy@enron.com'
p265
sg21
g5
sg22
I2
sg23
F0.0
sg24
I343434
sg25
I13
sg26
g5
sg27
g5
ssS'CALGER CHRISTOPHER F'
p266
(dp267
g3
I2598
sg4
g5
sg6
I1250000
sg7
I126027
sg8
I35818
sg9
I199
sg10
I25
sg11
I01
sg12
I-262500
sg13
I126027
sg14
I375304
sg15
I240189
sg16
F0.07659738260200154
sg17
I1639297
sg18
g5
sg19
S'christopher.calger@enron.com'
p268
sg21
g5
sg22
I2188
sg23
F0.1736111111111111
sg24
g5
sg25
I144
sg26
I486
sg27
g5
ssS'RICE KENNETH D'
p269
(dp270
g3
I905
sg4
g5
sg6
I1750000
sg7
I22542539
sg8
I46950
sg9
I42
sg10
I4
sg11
I01
sg12
I-3504386
sg13
I2748364
sg14
I1617011
sg15
I420636
sg16
F0.04640883977900553
sg17
I505050
sg18
g5
sg19
S'ken.rice@enron.com'
p271
sg21
g5
sg22
I864
sg23
F0.2222222222222222
sg24
I19794175
sg25
I18
sg26
I174839
sg27
g5
ssS'KAMINSKI WINCENTY J'
p272
(dp273
g3
I4607
sg4
g5
sg6
I400000
sg7
I976037
sg8
I83585
sg9
I41
sg10
I171
sg11
I00
sg12
g5
sg13
I126027
sg14
I323466
sg15
I275101
sg16
F0.008899500759713479
sg17
I1086821
sg18
g5
sg19
S'vince.kaminski@enron.com'
p274
sg21
g5
sg22
I583
sg23
F0.011901447661469933
sg24
I850010
sg25
I14368
sg26
I4669
sg27
g5
ssS'COX DAVID'
p275
(dp276
g3
I102
sg4
g5
sg6
I800000
sg7
I495633
sg8
I27861
sg9
I0
sg10
I4
sg11
I00
sg12
I-41250
sg13
I378082
sg14
g5
sg15
I314288
sg16
F0.0
sg17
I1101393
sg18
g5
sg19
S'chip.cox@enron.com'
p277
sg21
g5
sg22
I71
sg23
F0.12121212121212122
sg24
I117551
sg25
I33
sg26
I494
sg27
g5
ssS'OVERDYKE JR JERE C'
p278
(dp279
g3
I0
sg4
g5
sg6
I0
sg7
I7307594
sg8
I18834
sg9
I0
sg10
I0
sg11
I00
sg12
g5
sg13
I2041016
sg14
I135836
sg15
I94941
sg16
F0.0
sg17
I249787
sg18
g5
sg19
S'jere.overdyke@enron.com'
p280
sg21
g5
sg22
g5
sg23
F0.0
sg24
I5266578
sg25
I0
sg26
I176
sg27
g5
ssS'PEREIRA PAULO V. FERRAZ'
p281
(dp282
g3
I0
sg4
g5
sg6
I0
sg7
I0
sg8
I27942
sg9
I0
sg10
I0
sg11
I00
sg12
I-101250
sg13
g5
sg14
g5
sg15
I365811
sg16
F0.0
sg17
I27942
sg18
g5
sg19
g5
sg21
g5
sg22
g5
sg23
F0.0
sg24
g5
sg25
I0
sg26
g5
sg27
I101250
ssS'STABLER FRANK'
p283
(dp284
g3
I0
sg4
g5
sg6
I500000
sg7
I511734
sg8
I16514
sg9
I0
sg10
I0
sg11
I00
sg12
g5
sg13
I511734
sg14
g5
sg15
I239502
sg16
F0.0
sg17
I1112087
sg18
g5
sg19
S'frank.stabler@enron.com'
p285
sg21
g5
sg22
g5
sg23
F0.0
sg24
g5
sg25
I0
sg26
I356071
sg27
g5
ssS'SKILLING JEFFREY K'
p286
(dp287
g3
I3627
sg4
g5
sg6
I5600000
sg7
I26093672
sg8
I29336
sg9
I88
sg10
I30
sg11
I01
sg12
g5
sg13
I6843672
sg14
I1920000
sg15
I1111258
sg16
F0.0242624758753791
sg17
I8682716
sg18
g5
sg19
S'jeff.skilling@enron.com'
p288
sg21
g5
sg22
I2042
sg23
F0.2777777777777778
sg24
I19250000
sg25
I108
sg26
I22122
sg27
g5
ssS'BLAKE JR. NORMAN P'
p289
(dp290
g3
I0
sg4
g5
sg6
I0
sg7
I0
sg8
I1279
sg9
I0
sg10
I0
sg11
I00
sg12
I-113784
sg13
g5
sg14
g5
sg15
I365811
sg16
F0.0
sg17
I1279
sg18
g5
sg19
g5
sg21
g5
sg22
g5
sg23
F0.0
sg24
g5
sg25
I0
sg26
g5
sg27
I113784
ssS'SHERRICK JEFFREY B'
p291
(dp292
g3
I613
sg4
g5
sg6
I0
sg7
I1832468
sg8
g5
sg9
I39
sg10
I18
sg11
I00
sg12
g5
sg13
I405999
sg14
g5
sg15
I365811
sg16
F0.0636215334420881
sg17
I0
sg18
g5
sg19
S'jeffrey.sherrick@enron.com'
p293
sg21
g5
sg22
I583
sg23
F0.72
sg24
I1426469
sg25
I25
sg26
g5
sg27
g5
ssS'PRENTICE JAMES'
p294
(dp295
g3
I0
sg4
I564348
sg6
I0
sg7
I1095040
sg8
g5
sg9
I0
sg10
I0
sg11
I00
sg12
g5
sg13
I208809
sg14
g5
sg15
I365811
sg16
F0.0
sg17
I564348
sg18
g5
sg19
S'james.prentice@enron.com'
p296
sg21
g5
sg22
g5
sg23
F0.0
sg24
I886231
sg25
I0
sg26
g5
sg27
g5
ssS'GRAY RODNEY'
p297
(dp298
g3
I0
sg4
I93585
sg6
I0
sg7
I0
sg8
g5
sg9
I0
sg10
I0
sg11
I00
sg12
g5
sg13
g5
sg14
I365625
sg15
I6615
sg16
F0.0
sg17
I1146658
sg18
g5
sg19
g5
sg21
g5
sg22
g5
sg23
F0.0
sg24
g5
sg25
I0
sg26
I680833
sg27
g5
ssS'PICKERING MARK R'
p299
(dp300
g3
I898
sg4
g5
sg6
I300000
sg7
I28798
sg8
I31653
sg9
I7
sg10
I0
sg11
I00
sg12
g5
sg13
g5
sg14
g5
sg15
I655037
sg16
F0.0077951002227171495
sg17
I1386690
sg18
I400000
sg19
S'mark.pickering@enron.com'
p301
sg21
g5
sg22
I728
sg23
F0.0
sg24
I28798
sg25
I67
sg26
g5
sg27
g5
ssS'NOLES JAMES L'
p302
(dp303
g3
I0
sg4
I774401
sg6
I0
sg7
I368705
sg8
g5
sg9
I0
sg10
I0
sg11
I00
sg12
g5
sg13
I463261
sg14
g5
sg15
I365811
sg16
F0.0
sg17
I774401
sg18
g5
sg19
g5
sg21
I-94556
sg22
g5
sg23
F0.0
sg24
g5
sg25
I0
sg26
g5
sg27
g5
ssS'KEAN STEVEN J'
p304
(dp305
g3
I12754
sg4
g5
sg6
I1000000
sg7
I6153642
sg8
I41953
sg9
I140
sg10
I387
sg11
I00
sg12
g5
sg13
I4131594
sg14
I300000
sg15
I404338
sg16
F0.010976948408342482
sg17
I1747522
sg18
g5
sg19
S'steven.kean@enron.com'
p306
sg21
g5
sg22
I3639
sg23
F0.05725699067909454
sg24
I2022048
sg25
I6759
sg26
I1231
sg27
g5
ssS'FOWLER PEGGY'
p307
(dp308
g3
I517
sg4
g5
sg6
I0
sg7
I1884748
sg8
g5
sg9
I0
sg10
I0
sg11
I00
sg12
g5
sg13
I560170
sg14
g5
sg15
I365811
sg16
F0.0
sg17
I0
sg18
g5
sg19
S'kulvinder.fowler@enron.com'
p309
sg21
g5
sg22
I10
sg23
F0.0
sg24
I1324578
sg25
I36
sg26
g5
sg27
g5
ssS'WASAFF GEORGE'
p310
(dp311
g3
I400
sg4
I831299
sg6
I325000
sg7
I2056427
sg8
g5
sg9
I22
sg10
I7
sg11
I00
sg12
I-583325
sg13
I388167
sg14
I200000
sg15
I259996
sg16
F0.055
sg17
I1034395
sg18
g5
sg19
S'george.wasaff@enron.com'
p312
sg21
g5
sg22
I337
sg23
F0.23333333333333334
sg24
I1668260
sg25
I30
sg26
I1425
sg27
g5
ssS'WHITE JR THOMAS E'
p313
(dp314
g3
I0
sg4
g5
sg6
I450000
sg7
I15144123
sg8
I81353
sg9
I0
sg10
I0
sg11
I00
sg12
g5
sg13
I13847074
sg14
g5
sg15
I317543
sg16
F0.0
sg17
I1934359
sg18
g5
sg19
S'thomas.white@enron.com'
p315
sg21
g5
sg22
g5
sg23
F0.0
sg24
I1297049
sg25
I0
sg26
I1085463
sg27
g5
ssS'CHRISTODOULOU DIOMEDES'
p316
(dp317
g3
I0
sg4
g5
sg6
I0
sg7
I6077885
sg8
g5
sg9
I0
sg10
I0
sg11
I00
sg12
g5
sg13
I950730
sg14
g5
sg15
I365811
sg16
F0.0
sg17
I0
sg18
g5
sg19
S'diomedes.christodoulou@enron.com'
p318
sg21
g5
sg22
g5
sg23
F0.0
sg24
I5127155
sg25
I0
sg26
g5
sg27
g5
ssS'ALLEN PHILLIP K'
p319
(dp320
g3
I2902
sg4
I2869717
sg6
I4175000
sg7
I1729541
sg8
I13868
sg9
I47
sg10
I65
sg11
I00
sg12
I-3081055
sg13
I126027
sg14
I304805
sg15
I201955
sg16
F0.016195727084769126
sg17
I4484442
sg18
g5
sg19
S'phillip.allen@enron.com'
p321
sg21
I-126027
sg22
I1407
sg23
F0.029612756264236904
sg24
I1729541
sg25
I2195
sg26
I152
sg27
g5
ssS'SHARP VICTORIA T'
p322
(dp323
g3
I3136
sg4
I187469
sg6
I600000
sg7
I494136
sg8
I116337
sg9
I24
sg10
I6
sg11
I00
sg12
g5
sg13
I213063
sg14
I422158
sg15
I248146
sg16
F0.007653061224489796
sg17
I1576511
sg18
g5
sg19
S'vicki.sharp@enron.com'
p324
sg21
g5
sg22
I2477
sg23
F0.04411764705882353
sg24
I281073
sg25
I136
sg26
I2401
sg27
g5
ssS'JAEDICKE ROBERT'
p325
(dp326
g3
I0
sg4
g5
sg6
I0
sg7
I431750
sg8
g5
sg9
I0
sg10
I0
sg11
I00
sg12
I-25000
sg13
I44093
sg14
g5
sg15
I365811
sg16
F0.0
sg17
I83750
sg18
g5
sg19
g5
sg21
I-44093
sg22
g5
sg23
F0.0
sg24
I431750
sg25
I0
sg26
g5
sg27
I108750
ssS'WINOKUR JR. HERBERT S'
p327
(dp328
g3
I0
sg4
g5
sg6
I0
sg7
I0
sg8
I1413
sg9
I0
sg10
I0
sg11
I00
sg12
I-25000
sg13
g5
sg14
g5
sg15
I365811
sg16
F0.0
sg17
I84992
sg18
g5
sg19
g5
sg21
g5
sg22
g5
sg23
F0.0
sg24
g5
sg25
I0
sg26
g5
sg27
I108579
ssS'BROWN MICHAEL'
p329
(dp330
g3
I1486
sg4
g5
sg6
I0
sg7
I0
sg8
I49288
sg9
I13
sg10
I1
sg11
I00
sg12
g5
sg13
g5
sg14
g5
sg15
I365811
sg16
F0.008748317631224764
sg17
I49288
sg18
g5
sg19
S'michael.brown@enron.com'
p331
sg21
g5
sg22
I761
sg23
F0.024390243902439025
sg24
g5
sg25
I41
sg26
g5
sg27
g5
ssS'BADUM JAMES P'
p332
(dp333
g3
I0
sg4
I178980
sg6
I0
sg7
I257817
sg8
I3486
sg9
I0
sg10
I0
sg11
I00
sg12
g5
sg13
g5
sg14
g5
sg15
I365811
sg16
F0.0
sg17
I182466
sg18
g5
sg19
g5
sg21
g5
sg22
g5
sg23
F0.0
sg24
I257817
sg25
I0
sg26
g5
sg27
g5
ssS'HUGHES JAMES A'
p334
(dp335
g3
I719
sg4
g5
sg6
I0
sg7
I1118394
sg8
g5
sg9
I35
sg10
I5
sg11
I00
sg12
g5
sg13
I363428
sg14
g5
sg15
I365811
sg16
F0.048678720445062586
sg17
I0
sg18
g5
sg19
S'james.hughes@enron.com'
p336
sg21
g5
sg22
I589
sg23
F0.14705882352941177
sg24
I754966
sg25
I34
sg26
g5
sg27
g5
ssS'REYNOLDS LAWRENCE'
p337
(dp338
g3
I0
sg4
I51365
sg6
I100000
sg7
I4221891
sg8
I8409
sg9
I0
sg10
I0
sg11
I00
sg12
I-200000
sg13
I201483
sg14
I156250
sg15
I76399
sg16
F0.0
sg17
I394475
sg18
g5
sg19
g5
sg21
I-140264
sg22
g5
sg23
F0.0
sg24
I4160672
sg25
I0
sg26
I202052
sg27
g5
ssS'DIMICHELE RICHARD G'
p339
(dp340
g3
I0
sg4
g5
sg6
I1000000
sg7
I8317782
sg8
I35812
sg9
I0
sg10
I0
sg11
I00
sg12
g5
sg13
I126027
sg14
I694862
sg15
I262788
sg16
F0.0
sg17
I2368151
sg18
g5
sg19
S'richard.dimichele@enron.com'
p341
sg21
g5
sg22
g5
sg23
F0.0
sg24
I8191755
sg25
I0
sg26
I374689
sg27
g5
ssS'BHATNAGAR SANJAY'
p342
(dp343
g3
I523
sg4
g5
sg6
I0
sS'total_stock_value'
p344
I0
sg8
g5
sg9
I0
sg10
I1
sg11
I00
sg12
g5
sg13
I-2604490
sg14
g5
sg15
I365811
sg16
F0.0
sg17
I15456290
sg18
g5
sg19
S'sanjay.bhatnagar@enron.com'
p345
sg21
I15456290
sg22
I463
sg23
F0.034482758620689655
sg24
I2604490
sg25
I29
sg26
I137864
sg27
I137864
ssS'CARTER REBECCA C'
p346
(dp347
g3
I312
sg4
g5
sg6
I300000
sg7
I0
sg8
g5
sg9
I29
sg10
I7
sg11
I00
sg12
I-159792
sg13
I307301
sg14
I75000
sg15
I261809
sg16
F0.09294871794871795
sg17
I477557
sg18
g5
sg19
S'rebecca.carter@enron.com'
p348
sg21
I-307301
sg22
I196
sg23
F0.4666666666666667
sg24
g5
sg25
I15
sg26
I540
sg27
g5
ssS'BUCHANAN HAROLD G'
p349
(dp350
g3
I1088
sg4
g5
sg6
I500000
sg7
I1014505
sg8
I600
sg9
I0
sg10
I0
sg11
I00
sg12
g5
sg13
I189041
sg14
I304805
sg15
I248017
sg16
F0.0
sg17
I1054637
sg18
g5
sg19
S'john.buchanan@enron.com'
p351
sg21
g5
sg22
I23
sg23
F0.0
sg24
I825464
sg25
I125
sg26
I1215
sg27
g5
ssS'YEAP SOON'
p352
(dp353
g3
I0
sg4
g5
sg6
I0
sg7
I192758
sg8
I55097
sg9
I0
sg10
I0
sg11
I00
sg12
g5
sg13
g5
sg14
g5
sg15
I365811
sg16
F0.0
sg17
I55097
sg18
g5
sg19
g5
sg21
g5
sg22
g5
sg23
F0.0
sg24
I192758
sg25
I0
sg26
g5
sg27
g5
ssS'MURRAY JULIA H'
p354
(dp355
g3
I2192
sg4
g5
sg6
I400000
sg7
I597461
sg8
I57580
sg9
I11
sg10
I2
sg11
I00
sg12
g5
sg13
I196983
sg14
I125000
sg15
I229284
sg16
F0.005018248175182482
sg17
I812194
sg18
g5
sg19
S'julia.murray@enron.com'
p356
sg21
g5
sg22
I395
sg23
F0.044444444444444446
sg24
I400478
sg25
I45
sg26
I330
sg27
g5
ssS'GARLAND C KEVIN'
p357
(dp358
g3
I209
sg4
g5
sg6
I850000
sg7
I896153
sg8
I48405
sg9
I10
sg10
I27
sg11
I00
sg12
g5
sg13
I259907
sg14
I375304
sg15
I231946
sg16
F0.04784688995215311
sg17
I1566469
sg18
g5
sg19
S'kevin.garland@enron.com'
p359
sg21
g5
sg22
I178
sg23
F0.6136363636363636
sg24
I636246
sg25
I44
sg26
I60814
sg27
g5
ssS'DODSON KEITH'
p360
(dp361
g3
I176
sg4
g5
sg6
I70000
sg7
I0
sg8
I28164
sg9
I10
sg10
I3
sg11
I00
sg12
g5
sg13
g5
sg14
g5
sg15
I221003
sg16
F0.056818181818181816
sg17
I319941
sg18
g5
sg19
S'keith.dodson@enron.com'
p362
sg21
g5
sg22
I114
sg23
F0.21428571428571427
sg24
g5
sg25
I14
sg26
I774
sg27
g5
ssS'YEAGER F SCOTT'
p363
(dp364
g3
I0
sg4
g5
sg6
I0
sg7
I11884758
sg8
I53947
sg9
I0
sg10
I0
sg11
I01
sg12
g5
sg13
I3576206
sg14
g5
sg15
I158403
sg16
F0.0
sg17
I360300
sg18
g5
sg19
S'scott.yeager@enron.com'
p365
sg21
g5
sg22
g5
sg23
F0.0
sg24
I8308552
sg25
I0
sg26
I147950
sg27
g5
ssS'HIRKO JOSEPH'
p366
(dp367
g3
I0
sg4
I10259
sg6
I0
sg7
I30766064
sg8
I77978
sg9
I0
sg10
I0
sg11
I01
sg12
g5
sg13
g5
sg14
g5
sg15
I365811
sg16
F0.0
sg17
I91093
sg18
g5
sg19
S'joe.hirko@enron.com'
p368
sg21
g5
sg22
g5
sg23
F0.0
sg24
I30766064
sg25
I0
sg26
I2856
sg27
g5
ssS'DIETRICH JANET R'
p369
(dp370
g3
I2572
sg4
g5
sg6
I600000
sg7
I1865087
sg8
I3475
sg9
I305
sg10
I14
sg11
I00
sg12
g5
sg13
I315068
sg14
I556416
sg15
I250100
sg16
F0.11858475894245724
sg17
I1410464
sg18
g5
sg19
S'janet.dietrich@enron.com'
p371
sg21
g5
sg22
I1902
sg23
F0.2222222222222222
sg24
I1550019
sg25
I63
sg26
I473
sg27
g5
ssS'DERRICK JR. JAMES V'
p372
(dp373
g3
I2181
sg4
g5
sg6
I800000
sg7
I8831913
sg8
I51124
sg9
I64
sg10
I20
sg11
I00
sg12
I-1284000
sg13
I1787380
sg14
I484000
sg15
I492375
sg16
F0.029344337459880788
sg17
I550981
sg18
g5
sg19
S'james.derrick@enron.com'
p374
sg21
I-1787380
sg22
I1401
sg23
F0.022002200220022004
sg24
I8831913
sg25
I909
sg26
I7482
sg27
g5
ssS'FREVERT MARK A'
p375
(dp376
g3
I3275
sg4
I6426990
sg6
I2000000
sg7
I14622185
sg8
I86987
sg9
I242
sg10
I6
sg11
I00
sg12
I-3367011
sg13
I4188667
sg14
I1617011
sg15
I1060932
sg16
F0.07389312977099237
sg17
I17252530
sg18
I2000000
sg19
S'mark.frevert@enron.com'
p377
sg21
g5
sg22
I2979
sg23
F0.2857142857142857
sg24
I10433518
sg25
I21
sg26
I7427621
sg27
g5
ssS'PAI LOU L'
p378
(dp379
g3
I0
sg4
g5
sg6
I1000000
sg7
I23817930
sg8
I32047
sg9
I0
sg10
I0
sg11
I00
sg12
g5
sg13
I8453763
sg14
g5
sg15
I261879
sg16
F0.0
sg17
I3123383
sg18
g5
sg19
S'lou.pai@enron.com'
p380
sg21
g5
sg22
g5
sg23
F0.0
sg24
I15364167
sg25
I0
sg26
I1829457
sg27
g5
ssS'BAY FRANKLIN R'
p381
(dp382
g3
I0
sg4
I260455
sg6
I400000
sg7
I63014
sg8
I129142
sg9
I0
sg10
I0
sg11
I00
sg12
I-201641
sg13
I145796
sg14
g5
sg15
I239671
sg16
F0.0
sg17
I827696
sg18
g5
sg19
S'frank.bay@enron.com'
p383
sg21
I-82782
sg22
g5
sg23
F0.0
sg24
g5
sg25
I0
sg26
I69
sg27
g5
ssS'HAYSLETT RODERICK J'
p384
(dp385
g3
I2649
sg4
g5
sg6
I0
sg7
I346663
sg8
g5
sg9
I35
sg10
I38
sg11
I00
sg12
g5
sg13
I346663
sg14
g5
sg15
I365811
sg16
F0.01321253303133258
sg17
I0
sg18
g5
sg19
S'rod.hayslett@enron.com'
p386
sg21
g5
sg22
I571
sg23
F0.03581526861451461
sg24
g5
sg25
I1061
sg26
g5
sg27
g5
ssS'FUGH JOHN L'
p387
(dp388
g3
I0
sg4
I50591
sg6
I0
sg7
I176378
sg8
g5
sg9
I0
sg10
I0
sg11
I00
sg12
g5
sg13
g5
sg14
g5
sg15
I365811
sg16
F0.0
sg17
I50591
sg18
g5
sg19
g5
sg21
g5
sg22
g5
sg23
F0.0
sg24
I176378
sg25
I0
sg26
g5
sg27
g5
ssS'FALLON JAMES B'
p389
(dp390
g3
I1755
sg4
g5
sg6
I2500000
sg7
I2332399
sg8
I95924
sg9
I42
sg10
I37
sg11
I00
sg12
g5
sg13
I1392142
sg14
I374347
sg15
I304588
sg16
F0.023931623931623933
sg17
I3676340
sg18
g5
sg19
S'jim.fallon@enron.com'
p391
sg21
g5
sg22
I1604
sg23
F0.49333333333333335
sg24
I940257
sg25
I75
sg26
I401481
sg27
g5
ssS'KOENIG MARK E'
p392
(dp393
g3
I2374
sg4
g5
sg6
I700000
sg7
I1920055
sg8
I127017
sg9
I53
sg10
I15
sg11
I01
sg12
g5
sg13
I1248318
sg14
I300000
sg15
I309946
sg16
F0.02232518955349621
sg17
I1587421
sg18
g5
sg19
S'mark.koenig@enron.com'
p394
sg21
g5
sg22
I2271
sg23
F0.2459016393442623
sg24
I671737
sg25
I61
sg26
I150458
sg27
g5
ssS'SAVAGE FRANK'
p395
(dp396
g3
I0
sg4
g5
sg6
I0
sg7
I0
sg8
g5
sg9
I0
sg10
I0
sg11
I00
sg12
I-121284
sg13
g5
sg14
g5
sg15
I365811
sg16
F0.0
sg17
I3750
sg18
g5
sg19
g5
sg21
g5
sg22
g5
sg23
F0.0
sg24
g5
sg25
I0
sg26
g5
sg27
I125034
ssS'IZZO LAWRENCE L'
p397
(dp398
g3
I496
sg4
g5
sg6
I0
sg7
I5819980
sg8
I28093
sg9
I28
sg10
I5
sg11
I00
sg12
g5
sg13
I3654808
sg14
I312500
sg15
I85274
sg16
F0.056451612903225805
sg17
I1979596
sg18
g5
sg19
S'larry.izzo@enron.com'
p399
sg21
g5
sg22
I437
sg23
F0.2631578947368421
sg24
I2165172
sg25
I19
sg26
I1553729
sg27
g5
ssS'TILNEY ELIZABETH A'
p400
(dp401
g3
I460
sg4
g5
sg6
I300000
sg7
I1168042
sg8
g5
sg9
I10
sg10
I11
sg11
I00
sg12
I-575000
sg13
I576792
sg14
I275000
sg15
I247338
sg16
F0.021739130434782608
sg17
I399393
sg18
g5
sg19
S'elizabeth.tilney@enron.com'
p402
sg21
g5
sg22
I379
sg23
F0.5789473684210527
sg24
I591250
sg25
I19
sg26
I152055
sg27
g5
ssS'MARTIN AMANDA K'
p403
(dp404
g3
I1522
sg4
I85430
sg6
I0
sg7
I2070306
sg8
I8211
sg9
I8
sg10
I0
sg11
I00
sg12
g5
sg13
g5
sg14
I5145434
sg15
I349487
sg16
F0.005256241787122208
sg17
I8407016
sg18
g5
sg19
S'a..martin@enron.com'
p405
sg21
g5
sg22
I477
sg23
F0.0
sg24
I2070306
sg25
I230
sg26
I2818454
sg27
g5
ssS'BUY RICHARD B'
p406
(dp407
g3
I3523
sg4
I649584
sg6
I900000
sg7
I3444470
sg8
g5
sg9
I156
sg10
I71
sg11
I00
sg12
I-694862
sg13
I901657
sg14
I769862
sg15
I330546
sg16
F0.04428044280442804
sg17
I2355702
sg18
g5
sg19
S'rick.buy@enron.com'
p408
sg21
g5
sg22
I2333
sg23
F0.06742640075973409
sg24
I2542813
sg25
I1053
sg26
I400572
sg27
g5
ssS'GRAMM WENDY L'
p409
(dp410
g3
I0
sg4
g5
sg6
I0
sg7
I0
sg8
g5
sg9
I0
sg10
I0
sg11
I00
sg12
g5
sg13
g5
sg14
g5
sg15
I365811
sg16
F0.0
sg17
I119292
sg18
g5
sg19
g5
sg21
g5
sg22
g5
sg23
F0.0
sg24
g5
sg25
I0
sg26
g5
sg27
I119292
ssS'CAUSEY RICHARD A'
p411
(dp412
g3
I1892
sg4
g5
sg6
I1000000
sg7
I2502063
sg8
I30674
sg9
I58
sg10
I12
sg11
I01
sg12
I-235000
sg13
I2502063
sg14
I350000
sg15
I415189
sg16
F0.0306553911205074
sg17
I1868758
sg18
g5
sg19
S'richard.causey@enron.com'
p413
sg21
g5
sg22
I1585
sg23
F0.24489795918367346
sg24
g5
sg25
I49
sg26
I307895
sg27
g5
ssS'TAYLOR MITCHELL S'
p414
(dp415
g3
I533
sg4
I227449
sg6
I600000
sg7
I3745048
sg8
g5
sg9
I0
sg10
I0
sg11
I00
sg12
g5
sg13
I563798
sg14
g5
sg15
I265214
sg16
F0.0
sg17
I1092663
sg18
g5
sg19
S'mitchell.taylor@enron.com'
p416
sg21
g5
sg22
I300
sg23
F0.0
sg24
I3181250
sg25
I29
sg26
g5
sg27
g5
ssS'DONAHUE JR JEFFREY M'
p417
(dp418
g3
I865
sg4
g5
sg6
I800000
sg7
I1080988
sg8
I96268
sg9
I188
sg10
I11
sg11
I00
sg12
I-300000
sg13
I315068
sg14
g5
sg15
I278601
sg16
F0.21734104046242775
sg17
I875760
sg18
g5
sg19
S'jeff.donahue@enron.com'
p419
sg21
g5
sg22
I772
sg23
F0.5
sg24
I765920
sg25
I22
sg26
I891
sg27
g5
ssS'GLISAN JR BEN F'
p420
(dp421
g3
I873
sg4
g5
sg6
I600000
sg7
I778546
sg8
I125978
sg9
I52
sg10
I6
sg11
I01
sg12
g5
sg13
I393818
sg14
I71023
sg15
I274975
sg16
F0.05956471935853379
sg17
I1272284
sg18
g5
sg19
S'ben.glisan@enron.com'
p422
sg21
g5
sg22
I874
sg23
F0.375
sg24
I384728
sg25
I16
sg26
I200308
sg27
g5
ss.